target datalayout = "e-m:e-p270:32:32-p271:32:32-p272:64:64-i64:64-i128:128-f80:128-n8:16:32:64-S128"
target triple = "x86_64-pc-linux-gnu"

%struct.malloc_state = type { i32, i32, i64, i64, ptr, ptr, ptr, i64, i64, i64, [66 x ptr], [32 x ptr], i64, i64, i64, i32, i32, %struct.malloc_segment, ptr, i64 }
%struct.malloc_segment = type { ptr, i64, ptr, i32 }

; Function Attrs: nounwind uwtable
define hidden i64 @destroy_mspace(ptr noundef %0) #0 {
  %2 = alloca ptr, align 8
  %3 = alloca i64, align 8
  %4 = alloca ptr, align 8
  %5 = alloca ptr, align 8
  %6 = alloca ptr, align 8
  %7 = alloca i64, align 8
  %8 = alloca i32, align 4
  store ptr %0, ptr %2, align 8, !tbaa !16
  call void @llvm.lifetime.start.p0(i64 8, ptr %3) #9
  store i64 0, ptr %3, align 8, !tbaa !3
  call void @llvm.lifetime.start.p0(i64 8, ptr %4) #9
  %9 = load ptr, ptr %2, align 8, !tbaa !16
  store ptr %9, ptr %4, align 8, !tbaa !16
  call void @llvm.lifetime.start.p0(i64 8, ptr %5) #9
  %10 = load ptr, ptr %4, align 8, !tbaa !16
  %11 = getelementptr inbounds nuw %struct.malloc_state, ptr %10, i32 0, i32 17
  store ptr %11, ptr %5, align 8, !tbaa !16
  br label %12

12:                                               ; preds = %45, %1
  %13 = load ptr, ptr %5, align 8, !tbaa !16
  %14 = icmp ne ptr %13, null
  br i1 %14, label %15, label %46

15:                                               ; preds = %12
  call void @llvm.lifetime.start.p0(i64 8, ptr %6) #9
  %16 = load ptr, ptr %5, align 8, !tbaa !16
  %17 = getelementptr inbounds nuw %struct.malloc_segment, ptr %16, i32 0, i32 0
  %18 = load ptr, ptr %17, align 8, !tbaa !54
  store ptr %18, ptr %6, align 8, !tbaa !16
  call void @llvm.lifetime.start.p0(i64 8, ptr %7) #9
  %19 = load ptr, ptr %5, align 8, !tbaa !16
  %20 = getelementptr inbounds nuw %struct.malloc_segment, ptr %19, i32 0, i32 1
  %21 = load i64, ptr %20, align 8, !tbaa !55
  store i64 %21, ptr %7, align 8, !tbaa !3
  call void @llvm.lifetime.start.p0(i64 4, ptr %8) #9
  %22 = load ptr, ptr %5, align 8, !tbaa !16
  %23 = getelementptr inbounds nuw %struct.malloc_segment, ptr %22, i32 0, i32 3
  %24 = load i32, ptr %23, align 8, !tbaa !58
  store i32 %24, ptr %8, align 4, !tbaa !14
  %25 = load ptr, ptr %5, align 8, !tbaa !16
  %26 = getelementptr inbounds nuw %struct.malloc_segment, ptr %25, i32 0, i32 2
  %27 = load ptr, ptr %26, align 8, !tbaa !56
  store ptr %27, ptr %5, align 8, !tbaa !16
  %28 = load i32, ptr %8, align 4, !tbaa !14
  %29 = zext i32 %28 to i64
  %30 = and i64 %29, 1
  %31 = icmp ne i64 %30, 0
  br i1 %31, label %32, label %45

32:                                               ; preds = %15
  %33 = load i32, ptr %8, align 4, !tbaa !14
  %34 = and i32 %33, 8
  %35 = icmp ne i32 %34, 0
  br i1 %35, label %45, label %36

36:                                               ; preds = %32
  %37 = load ptr, ptr %6, align 8, !tbaa !16
  %38 = load i64, ptr %7, align 8, !tbaa !3
  %39 = call i32 @munmap(ptr noundef %37, i64 noundef %38) #9
  %40 = icmp eq i32 %39, 0
  br i1 %40, label %41, label %45

41:                                               ; preds = %36
  %42 = load i64, ptr %7, align 8, !tbaa !3
  %43 = load i64, ptr %3, align 8, !tbaa !3
  %44 = add i64 %43, %42
  store i64 %44, ptr %3, align 8, !tbaa !3
  br label %45

45:                                               ; preds = %41, %36, %32, %15
  call void @llvm.lifetime.end.p0(i64 4, ptr %8) #9
  call void @llvm.lifetime.end.p0(i64 8, ptr %7) #9
  call void @llvm.lifetime.end.p0(i64 8, ptr %6) #9
  br label %12, !llvm.loop !73

46:                                               ; preds = %12
  call void @llvm.lifetime.end.p0(i64 8, ptr %5) #9
  %47 = load i64, ptr %3, align 8, !tbaa !3
  call void @llvm.lifetime.end.p0(i64 8, ptr %4) #9
  call void @llvm.lifetime.end.p0(i64 8, ptr %3) #9
  ret i64 %47
}