; Function Attrs: nounwind uwtable
define hidden i64 @destroy_mspace(ptr nocapture noundef readonly %0) local_unnamed_addr #0 {
  %2 = getelementptr inbounds nuw i8, ptr %0, i64 888
  br label %3

3:                                                ; preds = %1, %16
  %.017 = phi i64 [ 0, %1 ], [ %.1, %16 ]
  %.01316 = phi ptr [ %2, %1 ], [ %7, %16 ]
  %4 = getelementptr inbounds nuw i8, ptr %.01316, i64 24
  %5 = load i32, ptr %4, align 8, !tbaa !62
  %6 = getelementptr inbounds nuw i8, ptr %.01316, i64 16
  %7 = load ptr, ptr %6, align 8, !tbaa !60
  %8 = and i32 %5, 9
  %or.cond = icmp eq i32 %8, 1
  br i1 %or.cond, label %9, label %16

9:                                                ; preds = %3
  %10 = getelementptr inbounds nuw i8, ptr %.01316, i64 8
  %11 = load i64, ptr %10, align 8, !tbaa !59
  %12 = load ptr, ptr %.01316, align 8, !tbaa !58
  %13 = tail call i32 @munmap(ptr noundef %12, i64 noundef %11) #17
  %14 = icmp eq i32 %13, 0
  %15 = select i1 %14, i64 %11, i64 0
  %spec.select = add i64 %15, %.017
  br label %16

16:                                               ; preds = %9, %3
  %.1 = phi i64 [ %.017, %3 ], [ %spec.select, %9 ]
  %.not = icmp eq ptr %7, null
  br i1 %.not, label %17, label %3, !llvm.loop !79

17:                                               ; preds = %16
  ret i64 %.1
}